; Function Attrs: mustprogress uwtable
define hidden void @_ZN4cvc58internal8decision12JustifyStack8popStackEv(ptr noundef nonnull align 8 dereferenceable(184) %0) local_unnamed_addr #4 align 2 {
  %2 = getelementptr inbounds nuw i8, ptr %0, i64 176
  %3 = load i64, ptr %2, align 8, !tbaa !63
  %4 = getelementptr inbounds nuw i8, ptr %0, i64 144
  %5 = load ptr, ptr %4, align 8, !tbaa !33
  %6 = load ptr, ptr %5, align 8, !tbaa !34
  %7 = getelementptr inbounds nuw i8, ptr %6, i64 16
  %8 = load ptr, ptr %7, align 8, !tbaa !42
  %9 = getelementptr inbounds i8, ptr %8, i64 -8
  %10 = load ptr, ptr %9, align 8, !tbaa !44
  %11 = icmp eq ptr %5, %10
  br i1 %11, label %_ZN4cvc57context3CDOImEaSERKm.exit, label %12

12:                                               ; preds = %1
  %13 = getelementptr inbounds nuw i8, ptr %0, i64 136
  tail call void @_ZN4cvc57context10ContextObj6updateEv(ptr noundef nonnull align 8 dereferenceable(48) %13)
  br label %_ZN4cvc57context3CDOImEaSERKm.exit

_ZN4cvc57context3CDOImEaSERKm.exit:               ; preds = %1, %12
  %14 = add i64 %3, -1
  store i64 %14, ptr %2, align 8, !tbaa !32
  ret void
}